; Function Attrs: mustprogress uwtable
define hidden void @_ZN5arith3sls24init_bool_var_assignmentEj(ptr nocapture noundef nonnull readonly align 8 dereferenceable(97) %this, i32 noundef %v) local_unnamed_addr #5 align 2 {
entry:
  %m_bool_vars = getelementptr inbounds i8, ptr %this, i64 72
  %0 = load ptr, ptr %m_bool_vars, align 8
  %cmp.i.i = icmp eq ptr %0, null
  br i1 %cmp.i.i, label %if.end, label %_ZNK6vectorIPN5arith3sls4ineqELb0EjE4sizeEv.exit.i

_ZNK6vectorIPN5arith3sls4ineqELb0EjE4sizeEv.exit.i: ; preds = %entry
  %arrayidx.i.i = getelementptr inbounds i8, ptr %0, i64 -4
  %1 = load i32, ptr %arrayidx.i.i, align 4
  %cmp2.i = icmp ugt i32 %1, %v
  br i1 %cmp2.i, label %_ZNK17scoped_ptr_vectorIN5arith3sls4ineqEE3getEjPS2_.exit, label %if.end

_ZNK17scoped_ptr_vectorIN5arith3sls4ineqEE3getEjPS2_.exit: ; preds = %_ZNK6vectorIPN5arith3sls4ineqELb0EjE4sizeEv.exit.i
  %idxprom.i.i.i = zext i32 %v to i64
  %arrayidx.i.i.i = getelementptr inbounds ptr, ptr %0, i64 %idxprom.i.i.i
  %2 = load ptr, ptr %arrayidx.i.i.i, align 8
  %tobool.not = icmp eq ptr %2, null
  br i1 %tobool.not, label %if.end, label %land.lhs.true

land.lhs.true:                                    ; preds = %_ZNK17scoped_ptr_vectorIN5arith3sls4ineqEE3getEjPS2_.exit
  %shl.i = and i32 %v, 2147483647
  %m_bool_search.i = getelementptr inbounds i8, ptr %this, i64 24
  %3 = load ptr, ptr %m_bool_search.i, align 8
  %vtable.i = load ptr, ptr %3, align 8
  %vfn.i = getelementptr inbounds i8, ptr %vtable.i, i64 96
  %4 = load ptr, ptr %vfn.i, align 8
  %call3.i = tail call noundef zeroext i1 %4(ptr noundef nonnull align 8 dereferenceable(920) %3, i32 noundef %shl.i)
  %m_args_value.i = getelementptr inbounds i8, ptr %2, i64 24
  %5 = load i64, ptr %m_args_value.i, align 8
  %m_op.i.i = getelementptr inbounds i8, ptr %2, i64 8
  %6 = load i32, ptr %m_op.i.i, align 8
  switch i32 %6, label %sw.default.i.i [
    i32 1, label %sw.bb.i.i
    i32 0, label %sw.bb11.i.i
    i32 3, label %sw.bb23.i.i
    i32 2, label %sw.bb35.i.i
  ]

sw.bb.i.i:                                        ; preds = %land.lhs.true
  %m_bound.i.i = getelementptr inbounds i8, ptr %2, i64 16
  %7 = load i64, ptr %m_bound.i.i, align 8
  %cmp.not.i.i = icmp slt i64 %7, %5
  %sub10.i.i = sub nsw i64 %5, %7
  %spec.select.i.i = select i1 %cmp.not.i.i, i64 %sub10.i.i, i64 0
  br label %_ZNK5arith3sls3dttEbRKNS0_4ineqE.exit

sw.bb11.i.i:                                      ; preds = %land.lhs.true
  %m_bound14.i.i = getelementptr inbounds i8, ptr %2, i64 16
  %8 = load i64, ptr %m_bound14.i.i, align 8
  %cmp20.i.i = icmp ne i64 %8, %5
  %.30.i.i = zext i1 %cmp20.i.i to i64
  br label %_ZNK5arith3sls3dttEbRKNS0_4ineqE.exit

sw.bb23.i.i:                                      ; preds = %land.lhs.true
  %m_bound26.i.i = getelementptr inbounds i8, ptr %2, i64 16
  %9 = load i64, ptr %m_bound26.i.i, align 8
  %cmp32.i.i = icmp eq i64 %9, %5
  %.32.i.i = zext i1 %cmp32.i.i to i64
  br label %_ZNK5arith3sls3dttEbRKNS0_4ineqE.exit

sw.bb35.i.i:                                      ; preds = %land.lhs.true
  %m_bound38.i.i = getelementptr inbounds i8, ptr %2, i64 16
  %10 = load i64, ptr %m_bound38.i.i, align 8
  %cmp39.i.i = icmp sgt i64 %10, %5
  br i1 %cmp39.i.i, label %sw.bb35.i.i._ZNK5arith3sls3dttEbRKNS0_4ineqE.exit_crit_edge, label %if.end48.i.i

sw.bb35.i.i._ZNK5arith3sls3dttEbRKNS0_4ineqE.exit_crit_edge: ; preds = %sw.bb35.i.i
  br i1 %call3.i, label %if.end, label %if.then

if.end48.i.i:                                     ; preds = %sw.bb35.i.i
  %sub50.i.i = add i64 %5, 1
  %add51.i.i = sub i64 %sub50.i.i, %10
  br label %_ZNK5arith3sls3dttEbRKNS0_4ineqE.exit

sw.default.i.i:                                   ; preds = %land.lhs.true
  tail call void @_Z26notify_assertion_violationPKciS0_(ptr noundef nonnull @.str.9, i32 noundef 194, ptr noundef nonnull @.str.11)
  tail call void @exit(i32 noundef 114) #18
  unreachable

_ZNK5arith3sls3dttEbRKNS0_4ineqE.exit:            ; preds = %sw.bb.i.i, %sw.bb11.i.i, %sw.bb23.i.i, %if.end48.i.i
  %retval.0.i.i = phi i64 [ %add51.i.i, %if.end48.i.i ], [ %.30.i.i, %sw.bb11.i.i ], [ %.32.i.i, %sw.bb23.i.i ], [ %spec.select.i.i, %sw.bb.i.i ]
  %11 = icmp ne i64 %retval.0.i.i, 0
  %cmp5.not = xor i1 %call3.i, %11
  br i1 %cmp5.not, label %if.end, label %if.then

if.then:                                          ; preds = %sw.bb35.i.i._ZNK5arith3sls3dttEbRKNS0_4ineqE.exit_crit_edge, %_ZNK5arith3sls3dttEbRKNS0_4ineqE.exit
  %12 = load ptr, ptr %m_bool_search.i, align 8
  tail call void @_ZN3sat4ddfw4flipEj(ptr noundef nonnull align 8 dereferenceable(920) %12, i32 noundef %v)
  br label %if.end

if.end:                                           ; preds = %entry, %_ZNK6vectorIPN5arith3sls4ineqELb0EjE4sizeEv.exit.i, %sw.bb35.i.i._ZNK5arith3sls3dttEbRKNS0_4ineqE.exit_crit_edge, %if.then, %_ZNK5arith3sls3dttEbRKNS0_4ineqE.exit, %_ZNK17scoped_ptr_vectorIN5arith3sls4ineqEE3getEjPS2_.exit
  ret void
}